; Function Attrs: nofree norecurse nosync nounwind memory(readwrite, inaccessiblemem: none) uwtable
define void @png_safe_warning(ptr noundef readonly captures(none) %0, ptr noundef readonly captures(address_is_null) %1) local_unnamed_addr #9 {
  %3 = getelementptr inbounds nuw i8, ptr %0, i64 240
  %4 = load ptr, ptr %3, align 8, !tbaa !76
  %5 = getelementptr inbounds nuw i8, ptr %4, i64 32
  %6 = load i32, ptr %5, align 8, !tbaa !77
  %7 = icmp eq i32 %6, 0
  br i1 %7, label %8, label %20

8:                                                ; preds = %2
  %9 = getelementptr inbounds nuw i8, ptr %4, i64 36
  %.not18.i = icmp eq ptr %1, null
  br i1 %.not18.i, label %png_safecat.exit, label %.preheader.i

.preheader.i:                                     ; preds = %8
  %10 = load i8, ptr %1, align 1, !tbaa !24
  %.not = icmp eq i8 %10, 0
  br i1 %.not, label %png_safecat.exit, label %.lr.ph.i

.lr.ph.i:                                         ; preds = %.preheader.i, %.lr.ph.i
  %11 = phi i8 [ %15, %.lr.ph.i ], [ %10, %.preheader.i ]
  %.020.i = phi ptr [ %12, %.lr.ph.i ], [ %1, %.preheader.i ]
  %.219.i = phi i64 [ %13, %.lr.ph.i ], [ 0, %.preheader.i ]
  %12 = getelementptr inbounds nuw i8, ptr %.020.i, i64 1
  %13 = add nuw nsw i64 %.219.i, 1
  %14 = getelementptr inbounds nuw i8, ptr %9, i64 %.219.i
  store i8 %11, ptr %14, align 1, !tbaa !24
  %15 = load i8, ptr %12, align 1, !tbaa !24
  %16 = icmp ne i8 %15, 0
  %17 = icmp samesign ult i64 %.219.i, 62
  %18 = select i1 %16, i1 %17, i1 false
  br i1 %18, label %.lr.ph.i, label %png_safecat.exit, !llvm.loop !25

png_safecat.exit:                                 ; preds = %.lr.ph.i, %8, %.preheader.i
  %.1.i = phi i64 [ 0, %8 ], [ 0, %.preheader.i ], [ %13, %.lr.ph.i ]
  %19 = getelementptr inbounds nuw i8, ptr %9, i64 %.1.i
  store i8 0, ptr %19, align 1, !tbaa !24
  store i32 1, ptr %5, align 8, !tbaa !77
  br label %20

20:                                               ; preds = %png_safecat.exit, %2
  ret void
}